; Function Attrs: mustprogress uwtable
define internal fastcc void @_ZN7rocksdb12_GLOBAL__N_125FastLocalBloomBitsBuilderC2EiPSt6atomicIlESt10shared_ptrINS_23CacheReservationManagerEEb(ptr noundef nonnull align 8 dereferenceable(292) %this, i32 noundef %millibits_per_key, ptr noundef %aggregate_rounding_balance, ptr %cache_res_mgr.0.val, ptr %cache_res_mgr.8.val, i1 noundef zeroext %detect_filter_construct_corruption) unnamed_addr #3 align 2 personality ptr @__gxx_personality_v0 {
entry:
  %agg.tmp = alloca %"class.std::shared_ptr.22", align 8
  store ptr %cache_res_mgr.0.val, ptr %agg.tmp, align 8
  %_M_refcount.i.i = getelementptr inbounds i8, ptr %agg.tmp, i64 8
  store ptr %cache_res_mgr.8.val, ptr %_M_refcount.i.i, align 8
  %cmp.not.i.i.i = icmp eq ptr %cache_res_mgr.8.val, null
  br i1 %cmp.not.i.i.i, label %_ZNSt10shared_ptrIN7rocksdb23CacheReservationManagerEEC2ERKS2_.exit, label %if.then.i.i.i

if.then.i.i.i:                                    ; preds = %entry
  %_M_use_count.i.i.i.i = getelementptr inbounds i8, ptr %cache_res_mgr.8.val, i64 8
  %0 = load i8, ptr @__libc_single_threaded, align 1
  %tobool.i.i.not.i.i.i.i = icmp eq i8 %0, 0
  br i1 %tobool.i.i.not.i.i.i.i, label %if.else.i.i.i.i.i, label %if.then.i.i.i.i.i

if.then.i.i.i.i.i:                                ; preds = %if.then.i.i.i
  %1 = load i32, ptr %_M_use_count.i.i.i.i, align 4
  %add.i.i.i.i.i = add nsw i32 %1, 1
  store i32 %add.i.i.i.i.i, ptr %_M_use_count.i.i.i.i, align 4
  br label %_ZNSt10shared_ptrIN7rocksdb23CacheReservationManagerEEC2ERKS2_.exit

if.else.i.i.i.i.i:                                ; preds = %if.then.i.i.i
  %2 = atomicrmw volatile add ptr %_M_use_count.i.i.i.i, i32 1 acq_rel, align 4
  br label %_ZNSt10shared_ptrIN7rocksdb23CacheReservationManagerEEC2ERKS2_.exit

_ZNSt10shared_ptrIN7rocksdb23CacheReservationManagerEEC2ERKS2_.exit: ; preds = %entry, %if.then.i.i.i.i.i, %if.else.i.i.i.i.i
  invoke fastcc void @_ZN7rocksdb12_GLOBAL__N_122XXPH3FilterBitsBuilderC2EPSt6atomicIlESt10shared_ptrINS_23CacheReservationManagerEEb(ptr noundef nonnull align 8 dereferenceable(288) %this, ptr noundef %aggregate_rounding_balance, ptr noundef nonnull %agg.tmp, i1 noundef zeroext %detect_filter_construct_corruption)
          to label %invoke.cont unwind label %lpad

invoke.cont:                                      ; preds = %_ZNSt10shared_ptrIN7rocksdb23CacheReservationManagerEEC2ERKS2_.exit
  %3 = load ptr, ptr %_M_refcount.i.i, align 8
  %cmp.not.i.i.i2 = icmp eq ptr %3, null
  br i1 %cmp.not.i.i.i2, label %_ZNSt10shared_ptrIN7rocksdb23CacheReservationManagerEED2Ev.exit, label %if.then.i.i.i3

if.then.i.i.i3:                                   ; preds = %invoke.cont
  %_M_use_count.i.i.i.i4 = getelementptr inbounds i8, ptr %3, i64 8
  %4 = load atomic i64, ptr %_M_use_count.i.i.i.i4 acquire, align 8
  %cmp.i.i.i.i = icmp eq i64 %4, 4294967297
  %5 = trunc i64 %4 to i32
  br i1 %cmp.i.i.i.i, label %if.then.i.i.i.i, label %if.end.i.i.i.i

if.then.i.i.i.i:                                  ; preds = %if.then.i.i.i3
  store i32 0, ptr %_M_use_count.i.i.i.i4, align 8
  %_M_weak_count.i.i.i.i = getelementptr inbounds i8, ptr %3, i64 12
  store i32 0, ptr %_M_weak_count.i.i.i.i, align 4
  %vtable.i.i.i.i = load ptr, ptr %3, align 8
  %vfn.i.i.i.i = getelementptr inbounds i8, ptr %vtable.i.i.i.i, i64 16
  %6 = load ptr, ptr %vfn.i.i.i.i, align 8
  tail call void %6(ptr noundef nonnull align 8 dereferenceable(16) %3) #32
  br label %if.end8.sink.split.i.i.i.i

if.end.i.i.i.i:                                   ; preds = %if.then.i.i.i3
  %7 = load i8, ptr @__libc_single_threaded, align 1
  %tobool.i.not.i.i.i.i = icmp eq i8 %7, 0
  br i1 %tobool.i.not.i.i.i.i, label %if.else.i.i.i.i.i7, label %if.then.i.i.i.i.i5

if.then.i.i.i.i.i5:                               ; preds = %if.end.i.i.i.i
  %add.i.i.i.i.i6 = add nsw i32 %5, -1
  store i32 %add.i.i.i.i.i6, ptr %_M_use_count.i.i.i.i4, align 4
  br label %_ZN9__gnu_cxx27__exchange_and_add_dispatchEPii.exit.i.i.i.i

if.else.i.i.i.i.i7:                               ; preds = %if.end.i.i.i.i
  %8 = atomicrmw volatile add ptr %_M_use_count.i.i.i.i4, i32 -1 acq_rel, align 4
  br label %_ZN9__gnu_cxx27__exchange_and_add_dispatchEPii.exit.i.i.i.i

_ZN9__gnu_cxx27__exchange_and_add_dispatchEPii.exit.i.i.i.i: ; preds = %if.else.i.i.i.i.i7, %if.then.i.i.i.i.i5
  %retval.i.0.i.i.i.i = phi i32 [ %5, %if.then.i.i.i.i.i5 ], [ %8, %if.else.i.i.i.i.i7 ]
  %cmp6.i.i.i.i = icmp eq i32 %retval.i.0.i.i.i.i, 1
  br i1 %cmp6.i.i.i.i, label %if.then7.i.i.i.i, label %_ZNSt10shared_ptrIN7rocksdb23CacheReservationManagerEED2Ev.exit

if.then7.i.i.i.i:                                 ; preds = %_ZN9__gnu_cxx27__exchange_and_add_dispatchEPii.exit.i.i.i.i
  %vtable.i.i.i.i.i.i = load ptr, ptr %3, align 8
  %vfn.i.i.i.i.i.i = getelementptr inbounds i8, ptr %vtable.i.i.i.i.i.i, i64 16
  %9 = load ptr, ptr %vfn.i.i.i.i.i.i, align 8
  tail call void %9(ptr noundef nonnull align 8 dereferenceable(16) %3) #32
  %_M_weak_count.i.i.i.i.i.i = getelementptr inbounds i8, ptr %3, i64 12
  %10 = load i8, ptr @__libc_single_threaded, align 1
  %tobool.i.not.i.i.i.i.i.i = icmp eq i8 %10, 0
  br i1 %tobool.i.not.i.i.i.i.i.i, label %if.else.i.i.i.i.i.i.i, label %if.then.i.i.i.i.i.i.i

if.then.i.i.i.i.i.i.i:                            ; preds = %if.then7.i.i.i.i
  %11 = load i32, ptr %_M_weak_count.i.i.i.i.i.i, align 4
  %add.i.i.i.i.i.i.i = add nsw i32 %11, -1
  store i32 %add.i.i.i.i.i.i.i, ptr %_M_weak_count.i.i.i.i.i.i, align 4
  br label %_ZN9__gnu_cxx27__exchange_and_add_dispatchEPii.exit.i.i.i.i.i.i

if.else.i.i.i.i.i.i.i:                            ; preds = %if.then7.i.i.i.i
  %12 = atomicrmw volatile add ptr %_M_weak_count.i.i.i.i.i.i, i32 -1 acq_rel, align 4
  br label %_ZN9__gnu_cxx27__exchange_and_add_dispatchEPii.exit.i.i.i.i.i.i

_ZN9__gnu_cxx27__exchange_and_add_dispatchEPii.exit.i.i.i.i.i.i: ; preds = %if.else.i.i.i.i.i.i.i, %if.then.i.i.i.i.i.i.i
  %retval.i.0.i.i.i.i.i.i = phi i32 [ %11, %if.then.i.i.i.i.i.i.i ], [ %12, %if.else.i.i.i.i.i.i.i ]
  %cmp.i.i.i.i.i.i = icmp eq i32 %retval.i.0.i.i.i.i.i.i, 1
  br i1 %cmp.i.i.i.i.i.i, label %if.end8.sink.split.i.i.i.i, label %_ZNSt10shared_ptrIN7rocksdb23CacheReservationManagerEED2Ev.exit

if.end8.sink.split.i.i.i.i:                       ; preds = %_ZN9__gnu_cxx27__exchange_and_add_dispatchEPii.exit.i.i.i.i.i.i, %if.then.i.i.i.i
  %vtable2.i.i.i.i.i.i = load ptr, ptr %3, align 8
  %vfn3.i.i.i.i.i.i = getelementptr inbounds i8, ptr %vtable2.i.i.i.i.i.i, i64 24
  %13 = load ptr, ptr %vfn3.i.i.i.i.i.i, align 8
  tail call void %13(ptr noundef nonnull align 8 dereferenceable(16) %3) #32
  br label %_ZNSt10shared_ptrIN7rocksdb23CacheReservationManagerEED2Ev.exit

_ZNSt10shared_ptrIN7rocksdb23CacheReservationManagerEED2Ev.exit: ; preds = %invoke.cont, %_ZN9__gnu_cxx27__exchange_and_add_dispatchEPii.exit.i.i.i.i, %_ZN9__gnu_cxx27__exchange_and_add_dispatchEPii.exit.i.i.i.i.i.i, %if.end8.sink.split.i.i.i.i
  store ptr getelementptr inbounds ({ [13 x ptr] }, ptr @_ZTVN7rocksdb12_GLOBAL__N_125FastLocalBloomBitsBuilderE, i64 0, i32 0, i64 2), ptr %this, align 8
  %millibits_per_key_ = getelementptr inbounds i8, ptr %this, i64 288
  store i32 %millibits_per_key, ptr %millibits_per_key_, align 8
  ret void

lpad:                                             ; preds = %_ZNSt10shared_ptrIN7rocksdb23CacheReservationManagerEEC2ERKS2_.exit
  %14 = landingpad { ptr, i32 }
          cleanup
  call void @_ZNSt10shared_ptrIN7rocksdb23CacheReservationManagerEED2Ev(ptr noundef nonnull align 8 dereferenceable(16) %agg.tmp) #32
  resume { ptr, i32 } %14
}